******************************************************************************
                  MSP430 Linker PC v4.3.1                      
******************************************************************************
>> Linked Wed May 07 17:11:48 2014

OUTPUT FILE NAME:   <Project.out>
ENTRY POINT SYMBOL: "_c_int00"  address: 0000add4


MEMORY CONFIGURATION

         name            origin    length      used     unused   attr    fill
----------------------  --------  ---------  --------  --------  ----  --------
  SFR                   00000000   00000010  00000000  00000010  RWIX
  PERIPHERALS_8BIT      00000010   000000f0  00000000  000000f0  RWIX
  PERIPHERALS_16BIT     00000100   00000100  00000000  00000100  RWIX
  RAM                   00000200   00000400  000003f6  0000000a  RWIX
  INFOD                 00001000   00000040  00000000  00000040  RWIX
  INFOC                 00001040   00000040  00000000  00000040  RWIX
  INFOB                 00001080   00000040  00000000  00000040  RWIX
  INFOA                 000010c0   00000040  00000000  00000040  RWIX
  FLASH                 00008000   00007fde  000034a9  00004b35  RWIX
  INT00                 0000ffe0   00000002  00000000  00000002  RWIX
  INT01                 0000ffe2   00000002  00000000  00000002  RWIX
  INT02                 0000ffe4   00000002  00000000  00000002  RWIX
  INT03                 0000ffe6   00000002  00000002  00000000  RWIX
  INT04                 0000ffe8   00000002  00000000  00000002  RWIX
  INT05                 0000ffea   00000002  00000000  00000002  RWIX
  INT06                 0000ffec   00000002  00000002  00000000  RWIX
  INT07                 0000ffee   00000002  00000002  00000000  RWIX
  INT08                 0000fff0   00000002  00000000  00000002  RWIX
  INT09                 0000fff2   00000002  00000002  00000000  RWIX
  INT10                 0000fff4   00000002  00000000  00000002  RWIX
  INT11                 0000fff6   00000002  00000000  00000002  RWIX
  INT12                 0000fff8   00000002  00000000  00000002  RWIX
  INT13                 0000fffa   00000002  00000000  00000002  RWIX
  INT14                 0000fffc   00000002  00000000  00000002  RWIX
  RESET                 0000fffe   00000002  00000002  00000000  RWIX


SECTION ALLOCATION MAP

 output                                  attributes/
section   page    origin      length       input sections
--------  ----  ----------  ----------   ----------------
.bss       0    00000200    00000356     UNINITIALIZED
                  00000200    00000180     nwk_QMgmt.obj (.bss)
                  00000380    0000009c     UART_HANDLER.obj (.bss)
                  0000041c    00000078     nwk.obj (.bss)
                  00000494    00000040     main_AP_Async_TalkandListen_.obj (.bss)
                  000004d4    0000003c     mrfi.obj (.bss)
                  00000510    00000010     nwk_link.obj (.bss)
                  00000520    0000000b     nwk_join.obj (.bss)
                  0000052b    00000009     nwk_globals.obj (.bss)
                  00000534    00000008     nwk_frame.obj (.bss)
                  0000053c    00000008     rts430.lib : memory.obj (.bss)
                  00000544    00000005     nwk_mgmt.obj (.bss)
                  00000549    00000001     bsp.obj (.bss)
                  0000054a    00000004     rts430.lib : _lock.obj (.bss)
                  0000054e    00000004                : boot.obj (.bss)
                  00000552    00000002                : vars.obj (.bss)
                  00000554    00000001     nwk_api.obj (.bss)
                  00000555    00000001     nwk_ping.obj (.bss)

.sysmem    0    00000558    00000050     UNINITIALIZED
                  00000558    00000004     rts430.lib : memory.obj (.sysmem)
                  0000055c    0000004c     --HOLE--

.stack     0    000005b0    00000050     UNINITIALIZED
                  000005b0    00000002     rts430.lib : boot.obj (.stack)
                  000005b2    0000004e     --HOLE--

.text      0    00008000    00003352     
                  00008000    000001fe     mrfi.obj (.text:MRFI_Init)
                  000081fe    000001f8     nwk_link.obj (.text:smpl_send_link_reply)
                  000083f6    000001d6     nwk_QMgmt.obj (.text:nwk_QfindOldest)
                  000085cc    00000196     nwk_frame.obj (.text:dispatchFrame)
                  00008762    00000194     main_AP_Async_TalkandListen_.obj (.text:main)
                  000088f6    00000146     nwk.obj (.text:nwk_allocateLocalRxPort)
                  00008a3c    00000138     nwk_join.obj (.text:smpl_send_join_reply)
                  00008b74    00000130     rts430.lib : fs_add.obj (.text)
                  00008ca4    0000011c     mrfi.obj (.text:MRFI_Transmit)
                  00008dc0    00000112     nwk_api.obj (.text:SMPL_Ioctl)
                  00008ed2    000000fc     nwk_frame.obj (.text:nwk_retrieveFrame)
                  00008fce    000000ea     mrfi.obj (.text:Mrfi_SyncPinRxIsr)
                  000090b8    000000e8     nwk_frame.obj (.text:nwk_buildFrame)
                  000091a0    000000da     nwk_api.obj (.text:SMPL_SendOpt)
                  0000927a    000000da     nwk_QMgmt.obj (.text:nwk_QfindSlot)
                  00009354    000000c0     nwk_frame.obj (.text:isDupSandFFrame)
                  00009414    000000b6     nwk_mgmt.obj (.text:send_poll_reply)
                  000094ca    000000b0     nwk_frame.obj (.text:nwk_SendEmptyPollRspFrame)
                  0000957a    000000ac     nwk_ioctl.obj (.text:nwk_radioControl)
                  00009626    000000a8     rts430.lib : memory.obj (.text:malloc)
                  000096ce    000000a8     mrfi.obj (.text:spiBurstFifoAccess)
                  00009776    0000009a     nwk_frame.obj (.text:nwk_getSandFFrame)
                  00009810    00000090     nwk.obj (.text:nwk_isConnectionValid)
                  000098a0    0000008e     nwk_api.obj (.text:SMPL_LinkListen)
                  0000992e    00000088     UART_HANDLER.obj (.text:__ct__13Circ_UART_BufFPUci)
                  000099b6    00000088     nwk.obj (.text:nwk_nwkInit)
                  00009a3e    00000084     nwk.obj (.text:nwk_saveJoinedDevice)
                  00009ac2    00000074     nwk_ioctl.obj (.text:nwk_rawSend)
                  00009b36    00000070     mrfi.obj (.text:MRFI_RxAddrIsFiltered)
                  00009ba6    00000068     nwk.obj (.text:nwk_putNumObjectIntoMsg)
                  00009c0e    00000062     nwk_mgmt.obj (.text:nwk_processMgmt)
                  00009c70    00000060     nwk_api.obj (.text:SMPL_Receive)
                  00009cd0    0000005e     nwk.obj (.text:nwk_findAlreadyJoined)
                  00009d2e    0000005e     mrfi.obj (.text:spiRegAccess)
                  00009d8c    0000005c     mrfi.obj (.text:mrfiSpiCmdStrobe)
                  00009de8    0000005c     nwk_QMgmt.obj (.text:nwk_QadjustOrder)
                  00009e44    0000005c     nwk.obj (.text:nwk_isLinkDuplicate)
                  00009ea0    0000005a     nwk.obj (.text:initializeConnection)
                  00009efa    0000005a     nwk.obj (.text:nwk_getNextConnection)
                  00009f54    0000005a     nwk.obj (.text:nwk_isValidReply)
                  00009fae    00000058     rts430.lib : div32u.obj (.text)
                  0000a006    00000056     nwk_link.obj (.text:nwk_getLocalLinkID)
                  0000a05c    00000056     nwk_ping.obj (.text:smpl_send_ping_reply)
                  0000a0b2    00000054     mrfi.obj (.text:MRFI_WakeUp)
                  0000a106    00000054     nwk_join.obj (.text:nwk_isSandFClient)
                  0000a15a    00000054     nwk_join.obj (.text:nwk_processJoin)
                  0000a1ae    00000052     UART_HANDLER.obj (.text:tx_bytes_to_slave__FPUci)
                  0000a200    00000050     nwk.obj (.text:nwk_checkAppMsgTID)
                  0000a250    0000004e     nwk.obj (.text:map_lid2idx)
                  0000a29e    0000004e     nwk.obj (.text:nwk_getNumObjectFromMsg)
                  0000a2ec    0000004c     mrfi.obj (.text:MRFI_Rssi)
                  0000a338    0000004c     mrfi.obj (.text:Mrfi_CalculateRssi)
                  0000a384    0000004c     rts430.lib : lsr16.obj (.text)
                  0000a3d0    0000004c                : rotl16.obj (.text)
                  0000a41c    0000004a     nwk_link.obj (.text:handleLinkRequest)
                  0000a466    0000004a     nwk_ioctl.obj (.text:nwk_deviceAddress)
                  0000a4b0    0000004a     rts430.lib : fs_cmp.obj (.text)
                  0000a4fa    00000048                : autoinit.obj (.text:_auto_init)
                  0000a542    00000048     nwk_link.obj (.text:nwk_processLink)
                  0000a58a    00000048     nwk_ping.obj (.text:nwk_processPing)
                  0000a5d2    00000048     nwk_frame.obj (.text:nwk_sendFrame)
                  0000a61a    00000046     nwk_frame.obj (.text:nwk_replayFrame)
                  0000a660    00000044     main_AP_Async_TalkandListen_.obj (.text:ParseRXCmd__Fi)
                  0000a6a4    00000042     UART_HANDLER.obj (.text:USCIAB0TX_ISR__Fv)
                  0000a6e6    00000042     nwk.obj (.text:nwk_getConnInfo)
                  0000a728    00000042     nwk_join.obj (.text:nwk_joinInit)
                  0000a76a    00000040     mrfi.obj (.text:Mrfi_DelayUsec)
                  0000a7aa    00000040     nwk.obj (.text:nwk_checkConnInfo)
                  0000a7ea    00000040     nwk_ioctl.obj (.text:nwk_connectionControl)
                  0000a82a    0000003a     UART_HANDLER.obj (.text:Init_UART__Fv)
                  0000a864    0000003a     main_AP_Async_TalkandListen_.obj (.text:ind__18iterator__tm__3_UcFi_PZ1Z)
                  0000a89e    00000038     nwk_api.obj (.text:SMPL_Init)
                  0000a8d6    00000038     rts430.lib : memory.obj (.text:minit)
                  0000a90e    00000038     nwk_ioctl.obj (.text:nwk_rawReceive)
                  0000a946    00000036     mrfi.obj (.text:MRFI_SetRFPwr)
                  0000a97c    00000036     UART_HANDLER.obj (.text:USCIAB0RX_ISR__Fv)
                  0000a9b2    00000034     mrfi.obj (.text:MRFI_SetLogicalChannel)
                  0000a9e6    00000034     UART_HANDLER.obj (.text:__ct__18iterator__tm__3_UcFv)
                  0000aa1a    00000034     rts430.lib : new_.obj (.text:__nw__FUi)
                  0000aa4e    00000034     UART_HANDLER.obj (.text:init__18iterator__tm__3_UcFPZ1Zi_v)
                  0000aa82    00000034     mrfi.obj (.text:mrfiSpiInit)
                  0000aab6    00000032     UART_HANDLER.obj (.text:ResetBuf__13Circ_UART_BufFv)
                  0000aae8    00000032     main_AP_Async_TalkandListen_.obj (.text:TIMERA0_ISR__Fv)
                  0000ab1a    00000032     nwk_link.obj (.text:nwk_linkInit)
                  0000ab4c    00000030     bsp.obj (.text:BSP_Init)
                  0000ab7c    0000002e     main_AP_Async_TalkandListen_.obj (.text:adv__18iterator__tm__3_UcFi_v)
                  0000abaa    0000002e     nwk_join.obj (.text:handleJoinRequest)
                  0000abd8    0000002e     nwk_frame.obj (.text:nwk_frameInit)
                  0000ac06    0000002c     main_AP_Async_TalkandListen_.obj (.text:FlushNChars__13Circ_UART_BufFi)
                  0000ac32    0000002c     mrfi.obj (.text:Mrfi_RandomBackoffDelay)
                  0000ac5e    0000002c     mrfi.obj (.text:Mrfi_RxModeOff)
                  0000ac8a    0000002c     nwk_globals.obj (.text:nwk_setMyAddress)
                  0000acb6    0000002c     rts430.lib : div16s.obj (.text)
                  0000ace2    0000002a     bsp.obj (.text:BSP_InitBoard)
                  0000ad0c    0000002a     nwk_api.obj (.text:ioctlPreInitAccessIsOK)
                  0000ad36    00000028     bsp.obj (.text:BSP_Delay)
                  0000ad5e    00000028     main_AP_Async_TalkandListen_.obj (.text:UpdateBuf__13Circ_UART_BufFv)
                  0000ad86    00000028     mrfi.obj (.text:mrfiSpiWriteReg)
                  0000adae    00000026     mrfi.obj (.text:MRFI_Sleep)
                  0000add4    00000026     rts430.lib : boot.obj (.text:_c_int00_noexit)
                  0000adfa    00000026     mrfi.obj (.text:mrfiSpiReadReg)
                  0000ae20    00000026     nwk_globals.obj (.text:nwk_globalsInit)
                  0000ae46    00000026     rts430.lib : mult32.obj (.text)
                  0000ae6c    00000024     nwk_frame.obj (.text:MRFI_RxCompleteISR)
                  0000ae90    00000024     nwk_link.obj (.text:nwk_setLinkToken)
                  0000aeb4    00000022     mrfi.obj (.text:MRFI_DelayMs)
                  0000aed6    00000022     UART_HANDLER.obj (.text:__sti___16_UART_HANDLER_cpp_3daaade3)
                  0000aef8    00000022     rts430.lib : memcmp.obj (.text:memcmp)
                  0000af1a    00000022     main_AP_Async_TalkandListen_.obj (.text:proc_RXRF_Msg__FUcPUcT1)
                  0000af3c    00000020     mrfi.obj (.text:MRFI_RxOn)
                  0000af5c    00000020     rts430.lib : memmov.obj (.text:memmove)
                  0000af7c    00000020     main_AP_Async_TalkandListen_.obj (.text:toggleLED__FUc)
                  0000af9c    0000001e     mrfi.obj (.text:MRFI_RxIdle)
                  0000afba    0000001e     nwk_QMgmt.obj (.text:nwk_QInit)
                  0000afd8    0000001e     nwk_ioctl.obj (.text:nwk_joinContext)
                  0000aff6    0000001c     mrfi.obj (.text:MRFI_GpioIsr)
                  0000b012    0000001c     nwk_api.obj (.text:SMPL_Send)
                  0000b02e    0000001c     main_AP_Async_TalkandListen_.obj (.text:__sti___32_main_AP_Async_TalkandListen__cpp_time)
                  0000b04a    0000001c     nwk_ping.obj (.text:handlePingRequest)
                  0000b066    0000001c     UART_HANDLER.obj (.text:inc__18iterator__tm__3_UcFv_v)
                  0000b082    0000001c     nwk_link.obj (.text:nwk_getLinkToken)
                  0000b09e    0000001c     main_AP_Async_TalkandListen_.obj (.text:sCB__FUc)
                  0000b0ba    0000001c     nwk_mgmt.obj (.text:smpl_send_mgmt_reply)
                  0000b0d6    0000001a     mrfi.obj (.text:BSP_GpioPort1Isr)
                  0000b0f0    0000001a     main_AP_Async_TalkandListen_.obj (.text:DataAvail__13Circ_UART_BufFv)
                  0000b10a    0000001a     mrfi.obj (.text:mrfiSpiWriteTxFifo)
                  0000b124    0000001a     nwk_QMgmt.obj (.text:nwk_getQ)
                  0000b13e    0000001a     nwk_join.obj (.text:nwk_setJoinContext)
                  0000b158    0000001a     nwk_link.obj (.text:nwk_setListenContext)
                  0000b172    00000018     mrfi.obj (.text:mrfiSpiReadRxFifo)
                  0000b18a    00000018     nwk_mgmt.obj (.text:nwk_mgmtInit)
                  0000b1a2    00000016     mrfi.obj (.text:MRFI_RandomByte)
                  0000b1b8    00000016     mrfi.obj (.text:MRFI_Receive)
                  0000b1ce    00000016     mrfi.obj (.text:Mrfi_RxModeOn)
                  0000b1e4    00000016     rts430.lib : div16u.obj (.text)
                  0000b1fa    00000014     main_AP_Async_TalkandListen_.obj (.text:InitTimer__Fv)
                  0000b20e    00000014     rts430.lib : memset.obj (.text:memset)
                  0000b222    00000014                : mult16.obj (.text)
                  0000b236    00000012     bsp.obj (.text:BSP_InitLeds)
                  0000b248    00000012     utils.obj (.text:Disable_Int__Fv)
                  0000b25a    00000012     rts430.lib : memcpy.obj (.text:memcpy)
                  0000b26c    00000012     nwk_globals.obj (.text:nwk_getMyAddress)
                  0000b27e    00000010     rts430.lib : asr32.obj (.text:l_asr)
                  0000b28e    00000010     nwk_mgmt.obj (.text:nwk_resetSFMarker)
                  0000b29e    00000010     rts430.lib : epilog.obj (.text)
                  0000b2ae    0000000e     nwk.obj (.text:nwk_freeConnection)
                  0000b2bc    0000000c     mrfi.obj (.text:MRFI_PostKillSem)
                  0000b2c8    0000000c     utils.obj (.text:Restore_Int__FUs)
                  0000b2d4    0000000c     nwk_freq.obj (.text:nwk_processFreq)
                  0000b2e0    0000000c     nwk_security.obj (.text:nwk_processSecurity)
                  0000b2ec    0000000a     bsp.obj (.text:BSP_InitButtons)
                  0000b2f6    0000000a     bsp.obj (.text:BSP_InitDrivers)
                  0000b300    0000000a     bsp.obj (.text:_system_pre_init)
                  0000b30a    0000000a     nwk_join.obj (.text:generateLinkToken)
                  0000b314    0000000a     nwk_ping.obj (.text:nwk_pingInit)
                  0000b31e    00000006     mrfi.obj (.text:MRFI_GetRadioState)
                  0000b324    00000006     nwk_globals.obj (.text:nwk_getBCastAddress)
                  0000b32a    00000006     nwk_globals.obj (.text:nwk_getFWVersion)
                  0000b330    00000006     nwk_frame.obj (.text:nwk_getMyRxType)
                  0000b336    00000006     nwk_globals.obj (.text:nwk_getProtocolVersion)
                  0000b33c    00000006     nwk.obj (.text:nwk_getSFInfoPtr)
                  0000b342    00000004     rts430.lib : exit.obj (.text:abort)
                  0000b346    00000004     nwk_join.obj (.text:nwk_join)
                  0000b34a    00000002     rts430.lib : newhandler.obj (.text:__default_new_handler__Fv)
                  0000b34c    00000002                : _lock.obj (.text:_nop)
                  0000b34e    00000002     nwk_freq.obj (.text:nwk_freqInit)
                  0000b350    00000002     nwk_security.obj (.text:nwk_securityInit)

.cinit     0    0000b352    000000f4     
                  0000b352    00000034     main_AP_Async_TalkandListen_.obj (.cinit)
                  0000b386    0000002f     mrfi.obj (.cinit)
                  0000b3b5    00000001     --HOLE-- [fill = 0]
                  0000b3b6    0000001f     nwk_join.obj (.cinit)
                  0000b3d5    00000001     --HOLE-- [fill = 0]
                  0000b3d6    0000001e     nwk_frame.obj (.cinit)
                  0000b3f4    00000019     nwk_link.obj (.cinit)
                  0000b40d    00000001     --HOLE-- [fill = 0]
                  0000b40e    0000000b     nwk_mgmt.obj (.cinit)
                  0000b419    00000001     --HOLE-- [fill = 0]
                  0000b41a    00000006     rts430.lib : memory.obj (.cinit)
                  0000b420    00000006                : vars.obj (.cinit)
                  0000b426    00000005     bsp.obj (.cinit)
                  0000b42b    00000001     --HOLE-- [fill = 0]
                  0000b42c    00000005     nwk.obj (.cinit)
                  0000b431    00000001     --HOLE-- [fill = 0]
                  0000b432    00000005     nwk_api.obj (.cinit)
                  0000b437    00000001     --HOLE-- [fill = 0]
                  0000b438    00000005     nwk_globals.obj (.cinit)
                  0000b43d    00000001     --HOLE-- [fill = 0]
                  0000b43e    00000005     nwk_ping.obj (.cinit)
                  0000b443    00000001     --HOLE-- [fill = 0]
                  0000b444    00000002     (.pad.cinit) [fill = 0]

.const     0    0000b446    0000005d     
                  0000b446    0000003c     mrfi.obj (.const:mrfiRadioCfg)
                  0000b482    0000000c     nwk_frame.obj (.const:func)
                  0000b48e    00000009     nwk_globals.obj (.const)
                  0000b497    00000001     --HOLE-- [fill = 0]
                  0000b498    00000004     mrfi.obj (.const:.string:mrfiBroadcastAddr)
                  0000b49c    00000004     mrfi.obj (.const:.string:mrfiLogicalChanTable)
                  0000b4a0    00000003     mrfi.obj (.const:.string:mrfiRFPowerTable)

.pinit     0    0000b4a4    00000006     
                  0000b4a4    00000002     UART_HANDLER.obj (.pinit)
                  0000b4a6    00000002     main_AP_Async_TalkandListen_.obj (.pinit)
                  0000b4a8    00000002     --HOLE-- [fill = 0]

.int03     0    0000ffe6    00000002     
                  0000ffe6    00000002     mrfi.obj (.int03)

.int06     0    0000ffec    00000002     
                  0000ffec    00000002     UART_HANDLER.obj (.int06)

.int07     0    0000ffee    00000002     
                  0000ffee    00000002     UART_HANDLER.obj (.int07)

.int09     0    0000fff2    00000002     
                  0000fff2    00000002     main_AP_Async_TalkandListen_.obj (.int09)

.reset     0    0000fffe    00000002     
                  0000fffe    00000002     rts430.lib : boot.obj (.reset)


GLOBAL SYMBOLS: SORTED ALPHABETICALLY BY Name 

address    name
--------   ----
00000200   .bss
00008000   .text
0000004a   ADC10AE0
0000004b   ADC10AE1
000001b0   ADC10CTL0
000001b2   ADC10CTL1
00000048   ADC10DTC0
00000049   ADC10DTC1
000001b4   ADC10MEM
000001bc   ADC10SA
00000057   BCSCTL1
00000058   BCSCTL2
00000053   BCSCTL3
0000ad36   BSP_Delay
0000b0d6   BSP_GpioPort1Isr
0000ab4c   BSP_Init
0000ace2   BSP_InitBoard
0000b2ec   BSP_InitButtons
0000b2f6   BSP_InitDrivers
0000b236   BSP_InitLeds
0000b342   C$$EXIT
000010fb   CALBC1_12MHZ
000010f9   CALBC1_16MHZ
000010ff   CALBC1_1MHZ
000010fd   CALBC1_8MHZ
000010fa   CALDCO_12MHZ
000010f8   CALDCO_16MHZ
000010fe   CALDCO_1MHZ
000010fc   CALDCO_8MHZ
00000056   DCOCTL
0000b248   Disable_Int__Fv
00000128   FCTL1
0000012a   FCTL2
0000012c   FCTL3
00000000   IE1
00000001   IE2
00000002   IFG1
00000003   IFG2
0000a384   I_LSR
0000a3ca   I_LSR_1
0000a3a6   I_LSR_10
0000a3a2   I_LSR_11
0000a39e   I_LSR_12
0000a39a   I_LSR_13
0000a396   I_LSR_14
0000a392   I_LSR_15
0000a3c6   I_LSR_2
0000a3c2   I_LSR_3
0000a3be   I_LSR_4
0000a3ba   I_LSR_5
0000a3b6   I_LSR_6
0000a3b2   I_LSR_7
0000a3ae   I_LSR_8
0000a3aa   I_LSR_9
0000a3d0   I_ROTL
0000a416   I_ROTL_1
0000a3f2   I_ROTL_10
0000a3ee   I_ROTL_11
0000a3ea   I_ROTL_12
0000a3e6   I_ROTL_13
0000a3e2   I_ROTL_14
0000a3de   I_ROTL_15
0000a412   I_ROTL_2
0000a40e   I_ROTL_3
0000a40a   I_ROTL_4
0000a406   I_ROTL_5
0000a402   I_ROTL_6
0000a3fe   I_ROTL_7
0000a3fa   I_ROTL_8
0000a3f6   I_ROTL_9
0000b1fa   InitTimer__Fv
0000a82a   Init_UART__Fv
0000b27e   L_ASR
0000aeb4   MRFI_DelayMs
0000b31e   MRFI_GetRadioState
0000aff6   MRFI_GpioIsr
00008000   MRFI_Init
0000b2bc   MRFI_PostKillSem
0000b1a2   MRFI_RandomByte
0000b1b8   MRFI_Receive
0000a2ec   MRFI_Rssi
00009b36   MRFI_RxAddrIsFiltered
0000ae6c   MRFI_RxCompleteISR
0000af9c   MRFI_RxIdle
0000af3c   MRFI_RxOn
0000a9b2   MRFI_SetLogicalChannel
0000a946   MRFI_SetRFPwr
0000adae   MRFI_Sleep
00008ca4   MRFI_Transmit
0000a0b2   MRFI_WakeUp
000000c0   OA0CTL0
000000c1   OA0CTL1
000000c2   OA1CTL0
000000c3   OA1CTL1
00000022   P1DIR
00000025   P1IE
00000024   P1IES
00000023   P1IFG
00000020   P1IN
00000021   P1OUT
00000027   P1REN
00000026   P1SEL
0000002a   P2DIR
0000002d   P2IE
0000002c   P2IES
0000002b   P2IFG
00000028   P2IN
00000029   P2OUT
0000002f   P2REN
0000002e   P2SEL
0000001a   P3DIR
00000018   P3IN
00000019   P3OUT
00000010   P3REN
0000001b   P3SEL
0000001e   P4DIR
0000001c   P4IN
0000001d   P4OUT
00000011   P4REN
0000001f   P4SEL
0000a660   ParseRXCmd__Fi
00000380   RX_ser_buf
0000b2c8   Restore_Int__FUs
0000a89e   SMPL_Init
00008dc0   SMPL_Ioctl
000098a0   SMPL_LinkListen
00009c70   SMPL_Receive
0000b012   SMPL_Send
000091a0   SMPL_SendOpt
00000172   TACCR0
00000174   TACCR1
00000176   TACCR2
00000162   TACCTL0
00000164   TACCTL1
00000166   TACCTL2
00000160   TACTL
0000012e   TAIV
00000170   TAR
00000192   TBCCR0
00000194   TBCCR1
00000196   TBCCR2
00000182   TBCCTL0
00000184   TBCCTL1
00000186   TBCCTL2
00000180   TBCTL
0000011e   TBIV
00000190   TBR
0000aae8   TIMERA0_ISR__Fv
000004a6   TX_Time_msg
000004ac   TX_msg
000004cc   TX_msg_Len
000003ce   TX_ser_buf
000003bc   UART_RX_BUFFER
0000040a   UART_TX_BUFFER
0000005d   UCA0ABCTL
00000062   UCA0BR0
00000063   UCA0BR1
00000060   UCA0CTL0
00000061   UCA0CTL1
0000005f   UCA0IRRCTL
0000005e   UCA0IRTCTL
00000064   UCA0MCTL
00000066   UCA0RXBUF
00000065   UCA0STAT
00000067   UCA0TXBUF
0000006a   UCB0BR0
0000006b   UCB0BR1
00000068   UCB0CTL0
00000069   UCB0CTL1
0000006c   UCB0I2CIE
00000118   UCB0I2COA
0000011a   UCB0I2CSA
0000006e   UCB0RXBUF
0000006d   UCB0STAT
0000006f   UCB0TXBUF
0000a97c   USCIAB0RX_ISR__Fv
0000a6a4   USCIAB0TX_ISR__Fv
00000120   WDTCTL
00000600   __STACK_END
00000050   __STACK_SIZE
00000050   __SYSMEM_SIZE
00000001   __TI_args_main
00000001   __TI_auto_init
0000054e   __TI_cleanup_ptr
00000550   __TI_dtors_ptr
00000001   __TI_exit
0000ffe6   __TI_int03
0000ffec   __TI_int06
0000ffee   __TI_int07
0000fff2   __TI_int09
ffffffff   __binit__
00000200   __bss__
ffffffff   __c_args__
0000b352   __cinit__
0000b34a   __default_new_handler__Fv
0000acb6   __divi
0000b1e4   __divu
00009fae   __divul
00000556   __end__
0000b352   __etext__
00008b7a   __fs_add
0000a4b0   __fs_cmp
00008b74   __fs_sub
0000b222   __mpyi
0000ae46   __mpyl
0000aa1a   __nw__FUi
0000b4a4   __pinit__
0000acb6   __remi
0000b1e4   __remu
00009fae   __remul
0000aed6   __sti___16_UART_HANDLER_cpp_3daaade3
0000b02e   __sti___32_main_AP_Async_TalkandListen__cpp_time
00008000   __text__
0000a4fa   _auto_init
0000add4   _c_int00
0000add4   _c_int00_noexit
0000054a   _lock
00000552   _new_handler
0000b34c   _nop
0000fffe   _reset_vector
000005b0   _stack
00000558   _sys_memory
0000b300   _system_pre_init
0000054c   _unlock
0000b342   abort
ffffffff   binit
0000b352   cinit
00000556   end
0000b352   etext
0000b2aa   func_epilog_1
0000b2a8   func_epilog_2
0000b2a6   func_epilog_3
0000b2a4   func_epilog_4
0000b2a2   func_epilog_5
0000b2a0   func_epilog_6
0000b29e   func_epilog_7
00009354   isDupSandFFrame
000004d0   lAddr
00008762   main
00009626   malloc
0000aef8   memcmp
0000b25a   memcpy
0000af5c   memmove
0000b20e   memset
0000a8d6   minit
0000b498   mrfiBroadcastAddr
00009d8c   mrfiSpiCmdStrobe
0000aa82   mrfiSpiInit
0000adfa   mrfiSpiReadReg
0000b172   mrfiSpiReadRxFifo
0000ad86   mrfiSpiWriteReg
0000b10a   mrfiSpiWriteTxFifo
000004a2   next_time_Jam
0000afba   nwk_QInit
00009de8   nwk_QadjustOrder
000083f6   nwk_QfindOldest
0000927a   nwk_QfindSlot
000094ca   nwk_SendEmptyPollRspFrame
000088f6   nwk_allocateLocalRxPort
000090b8   nwk_buildFrame
0000a200   nwk_checkAppMsgTID
0000a7aa   nwk_checkConnInfo
0000a7ea   nwk_connectionControl
0000a466   nwk_deviceAddress
00009cd0   nwk_findAlreadyJoined
0000abd8   nwk_frameInit
0000b2ae   nwk_freeConnection
0000b34e   nwk_freqInit
0000b324   nwk_getBCastAddress
0000a6e6   nwk_getConnInfo
0000b32a   nwk_getFWVersion
0000b082   nwk_getLinkToken
0000a006   nwk_getLocalLinkID
0000b26c   nwk_getMyAddress
0000b330   nwk_getMyRxType
00009efa   nwk_getNextConnection
0000a29e   nwk_getNumObjectFromMsg
0000b336   nwk_getProtocolVersion
0000b124   nwk_getQ
0000b33c   nwk_getSFInfoPtr
00009776   nwk_getSandFFrame
0000ae20   nwk_globalsInit
00009810   nwk_isConnectionValid
00009e44   nwk_isLinkDuplicate
0000a106   nwk_isSandFClient
00009f54   nwk_isValidReply
0000b346   nwk_join
0000afd8   nwk_joinContext
0000a728   nwk_joinInit
0000ab1a   nwk_linkInit
0000b18a   nwk_mgmtInit
000099b6   nwk_nwkInit
0000b314   nwk_pingInit
0000b2d4   nwk_processFreq
0000a15a   nwk_processJoin
0000a542   nwk_processLink
00009c0e   nwk_processMgmt
0000a58a   nwk_processPing
0000b2e0   nwk_processSecurity
00009ba6   nwk_putNumObjectIntoMsg
0000957a   nwk_radioControl
0000a90e   nwk_rawReceive
00009ac2   nwk_rawSend
0000a61a   nwk_replayFrame
0000b28e   nwk_resetSFMarker
00008ed2   nwk_retrieveFrame
00009a3e   nwk_saveJoinedDevice
0000b350   nwk_securityInit
0000a5d2   nwk_sendFrame
0000b13e   nwk_setJoinContext
0000ae90   nwk_setLinkToken
0000b158   nwk_setListenContext
0000ac8a   nwk_setMyAddress
0000b4a4   pinit
0000049e   time
0000af7c   toggleLED__FUc
0000a1ae   tx_bytes_to_slave__FPUci


GLOBAL SYMBOLS: SORTED BY Symbol Address 

address    name
--------   ----
00000000   IE1
00000001   IE2
00000001   __TI_args_main
00000001   __TI_auto_init
00000001   __TI_exit
00000002   IFG1
00000003   IFG2
00000010   P3REN
00000011   P4REN
00000018   P3IN
00000019   P3OUT
0000001a   P3DIR
0000001b   P3SEL
0000001c   P4IN
0000001d   P4OUT
0000001e   P4DIR
0000001f   P4SEL
00000020   P1IN
00000021   P1OUT
00000022   P1DIR
00000023   P1IFG
00000024   P1IES
00000025   P1IE
00000026   P1SEL
00000027   P1REN
00000028   P2IN
00000029   P2OUT
0000002a   P2DIR
0000002b   P2IFG
0000002c   P2IES
0000002d   P2IE
0000002e   P2SEL
0000002f   P2REN
00000048   ADC10DTC0
00000049   ADC10DTC1
0000004a   ADC10AE0
0000004b   ADC10AE1
00000050   __STACK_SIZE
00000050   __SYSMEM_SIZE
00000053   BCSCTL3
00000056   DCOCTL
00000057   BCSCTL1
00000058   BCSCTL2
0000005d   UCA0ABCTL
0000005e   UCA0IRTCTL
0000005f   UCA0IRRCTL
00000060   UCA0CTL0
00000061   UCA0CTL1
00000062   UCA0BR0
00000063   UCA0BR1
00000064   UCA0MCTL
00000065   UCA0STAT
00000066   UCA0RXBUF
00000067   UCA0TXBUF
00000068   UCB0CTL0
00000069   UCB0CTL1
0000006a   UCB0BR0
0000006b   UCB0BR1
0000006c   UCB0I2CIE
0000006d   UCB0STAT
0000006e   UCB0RXBUF
0000006f   UCB0TXBUF
000000c0   OA0CTL0
000000c1   OA0CTL1
000000c2   OA1CTL0
000000c3   OA1CTL1
00000118   UCB0I2COA
0000011a   UCB0I2CSA
0000011e   TBIV
00000120   WDTCTL
00000128   FCTL1
0000012a   FCTL2
0000012c   FCTL3
0000012e   TAIV
00000160   TACTL
00000162   TACCTL0
00000164   TACCTL1
00000166   TACCTL2
00000170   TAR
00000172   TACCR0
00000174   TACCR1
00000176   TACCR2
00000180   TBCTL
00000182   TBCCTL0
00000184   TBCCTL1
00000186   TBCCTL2
00000190   TBR
00000192   TBCCR0
00000194   TBCCR1
00000196   TBCCR2
000001b0   ADC10CTL0
000001b2   ADC10CTL1
000001b4   ADC10MEM
000001bc   ADC10SA
00000200   .bss
00000200   __bss__
00000380   RX_ser_buf
000003bc   UART_RX_BUFFER
000003ce   TX_ser_buf
0000040a   UART_TX_BUFFER
0000049e   time
000004a2   next_time_Jam
000004a6   TX_Time_msg
000004ac   TX_msg
000004cc   TX_msg_Len
000004d0   lAddr
0000054a   _lock
0000054c   _unlock
0000054e   __TI_cleanup_ptr
00000550   __TI_dtors_ptr
00000552   _new_handler
00000556   __end__
00000556   end
00000558   _sys_memory
000005b0   _stack
00000600   __STACK_END
000010f8   CALDCO_16MHZ
000010f9   CALBC1_16MHZ
000010fa   CALDCO_12MHZ
000010fb   CALBC1_12MHZ
000010fc   CALDCO_8MHZ
000010fd   CALBC1_8MHZ
000010fe   CALDCO_1MHZ
000010ff   CALBC1_1MHZ
00008000   .text
00008000   MRFI_Init
00008000   __text__
000083f6   nwk_QfindOldest
00008762   main
000088f6   nwk_allocateLocalRxPort
00008b74   __fs_sub
00008b7a   __fs_add
00008ca4   MRFI_Transmit
00008dc0   SMPL_Ioctl
00008ed2   nwk_retrieveFrame
000090b8   nwk_buildFrame
000091a0   SMPL_SendOpt
0000927a   nwk_QfindSlot
00009354   isDupSandFFrame
000094ca   nwk_SendEmptyPollRspFrame
0000957a   nwk_radioControl
00009626   malloc
00009776   nwk_getSandFFrame
00009810   nwk_isConnectionValid
000098a0   SMPL_LinkListen
000099b6   nwk_nwkInit
00009a3e   nwk_saveJoinedDevice
00009ac2   nwk_rawSend
00009b36   MRFI_RxAddrIsFiltered
00009ba6   nwk_putNumObjectIntoMsg
00009c0e   nwk_processMgmt
00009c70   SMPL_Receive
00009cd0   nwk_findAlreadyJoined
00009d8c   mrfiSpiCmdStrobe
00009de8   nwk_QadjustOrder
00009e44   nwk_isLinkDuplicate
00009efa   nwk_getNextConnection
00009f54   nwk_isValidReply
00009fae   __divul
00009fae   __remul
0000a006   nwk_getLocalLinkID
0000a0b2   MRFI_WakeUp
0000a106   nwk_isSandFClient
0000a15a   nwk_processJoin
0000a1ae   tx_bytes_to_slave__FPUci
0000a200   nwk_checkAppMsgTID
0000a29e   nwk_getNumObjectFromMsg
0000a2ec   MRFI_Rssi
0000a384   I_LSR
0000a392   I_LSR_15
0000a396   I_LSR_14
0000a39a   I_LSR_13
0000a39e   I_LSR_12
0000a3a2   I_LSR_11
0000a3a6   I_LSR_10
0000a3aa   I_LSR_9
0000a3ae   I_LSR_8
0000a3b2   I_LSR_7
0000a3b6   I_LSR_6
0000a3ba   I_LSR_5
0000a3be   I_LSR_4
0000a3c2   I_LSR_3
0000a3c6   I_LSR_2
0000a3ca   I_LSR_1
0000a3d0   I_ROTL
0000a3de   I_ROTL_15
0000a3e2   I_ROTL_14
0000a3e6   I_ROTL_13
0000a3ea   I_ROTL_12
0000a3ee   I_ROTL_11
0000a3f2   I_ROTL_10
0000a3f6   I_ROTL_9
0000a3fa   I_ROTL_8
0000a3fe   I_ROTL_7
0000a402   I_ROTL_6
0000a406   I_ROTL_5
0000a40a   I_ROTL_4
0000a40e   I_ROTL_3
0000a412   I_ROTL_2
0000a416   I_ROTL_1
0000a466   nwk_deviceAddress
0000a4b0   __fs_cmp
0000a4fa   _auto_init
0000a542   nwk_processLink
0000a58a   nwk_processPing
0000a5d2   nwk_sendFrame
0000a61a   nwk_replayFrame
0000a660   ParseRXCmd__Fi
0000a6a4   USCIAB0TX_ISR__Fv
0000a6e6   nwk_getConnInfo
0000a728   nwk_joinInit
0000a7aa   nwk_checkConnInfo
0000a7ea   nwk_connectionControl
0000a82a   Init_UART__Fv
0000a89e   SMPL_Init
0000a8d6   minit
0000a90e   nwk_rawReceive
0000a946   MRFI_SetRFPwr
0000a97c   USCIAB0RX_ISR__Fv
0000a9b2   MRFI_SetLogicalChannel
0000aa1a   __nw__FUi
0000aa82   mrfiSpiInit
0000aae8   TIMERA0_ISR__Fv
0000ab1a   nwk_linkInit
0000ab4c   BSP_Init
0000abd8   nwk_frameInit
0000ac8a   nwk_setMyAddress
0000acb6   __divi
0000acb6   __remi
0000ace2   BSP_InitBoard
0000ad36   BSP_Delay
0000ad86   mrfiSpiWriteReg
0000adae   MRFI_Sleep
0000add4   _c_int00
0000add4   _c_int00_noexit
0000adfa   mrfiSpiReadReg
0000ae20   nwk_globalsInit
0000ae46   __mpyl
0000ae6c   MRFI_RxCompleteISR
0000ae90   nwk_setLinkToken
0000aeb4   MRFI_DelayMs
0000aed6   __sti___16_UART_HANDLER_cpp_3daaade3
0000aef8   memcmp
0000af3c   MRFI_RxOn
0000af5c   memmove
0000af7c   toggleLED__FUc
0000af9c   MRFI_RxIdle
0000afba   nwk_QInit
0000afd8   nwk_joinContext
0000aff6   MRFI_GpioIsr
0000b012   SMPL_Send
0000b02e   __sti___32_main_AP_Async_TalkandListen__cpp_time
0000b082   nwk_getLinkToken
0000b0d6   BSP_GpioPort1Isr
0000b10a   mrfiSpiWriteTxFifo
0000b124   nwk_getQ
0000b13e   nwk_setJoinContext
0000b158   nwk_setListenContext
0000b172   mrfiSpiReadRxFifo
0000b18a   nwk_mgmtInit
0000b1a2   MRFI_RandomByte
0000b1b8   MRFI_Receive
0000b1e4   __divu
0000b1e4   __remu
0000b1fa   InitTimer__Fv
0000b20e   memset
0000b222   __mpyi
0000b236   BSP_InitLeds
0000b248   Disable_Int__Fv
0000b25a   memcpy
0000b26c   nwk_getMyAddress
0000b27e   L_ASR
0000b28e   nwk_resetSFMarker
0000b29e   func_epilog_7
0000b2a0   func_epilog_6
0000b2a2   func_epilog_5
0000b2a4   func_epilog_4
0000b2a6   func_epilog_3
0000b2a8   func_epilog_2
0000b2aa   func_epilog_1
0000b2ae   nwk_freeConnection
0000b2bc   MRFI_PostKillSem
0000b2c8   Restore_Int__FUs
0000b2d4   nwk_processFreq
0000b2e0   nwk_processSecurity
0000b2ec   BSP_InitButtons
0000b2f6   BSP_InitDrivers
0000b300   _system_pre_init
0000b314   nwk_pingInit
0000b31e   MRFI_GetRadioState
0000b324   nwk_getBCastAddress
0000b32a   nwk_getFWVersion
0000b330   nwk_getMyRxType
0000b336   nwk_getProtocolVersion
0000b33c   nwk_getSFInfoPtr
0000b342   C$$EXIT
0000b342   abort
0000b346   nwk_join
0000b34a   __default_new_handler__Fv
0000b34c   _nop
0000b34e   nwk_freqInit
0000b350   nwk_securityInit
0000b352   __cinit__
0000b352   __etext__
0000b352   cinit
0000b352   etext
0000b498   mrfiBroadcastAddr
0000b4a4   __pinit__
0000b4a4   pinit
0000ffe6   __TI_int03
0000ffec   __TI_int06
0000ffee   __TI_int07
0000fff2   __TI_int09
0000fffe   _reset_vector
ffffffff   __binit__
ffffffff   __c_args__
ffffffff   binit

[317 symbols]
